target datalayout = "e-m:e-p270:32:32-p271:32:32-p272:64:64-i64:64-i128:128-f80:128-n8:16:32:64-S128"
target triple = "x86_64-pc-linux-gnu"

%struct.urlparse_url = type { i16, i16, [7 x %struct.anon] }
%struct.anon = type { i16, i16 }
%struct.http2_session_data = type { ptr, ptr, ptr, ptr }
%struct.http2_stream_data = type { ptr, ptr, ptr, ptr, i64, i64, i32 }
%struct.nghttp2_nv = type { ptr, ptr, i64, i64, i8 }

@stderr = external global ptr, align 8
@.str.17 = private unnamed_addr constant [3 x i8] c": \00", align 1
@.str.18 = private unnamed_addr constant [2 x i8] c"\0A\00", align 1
@.str.21 = private unnamed_addr constant [8 x i8] c":method\00", align 1
@.str.22 = private unnamed_addr constant [4 x i8] c"GET\00", align 1
@.str.23 = private unnamed_addr constant [8 x i8] c":scheme\00", align 1
@.str.24 = private unnamed_addr constant [11 x i8] c":authority\00", align 1
@.str.25 = private unnamed_addr constant [6 x i8] c":path\00", align 1
@.str.26 = private unnamed_addr constant [18 x i8] c"Request headers:\0A\00", align 1
@.str.27 = private unnamed_addr constant [34 x i8] c"Could not submit HTTP request: %s\00", align 1

; Function Attrs: nounwind uwtable
define internal void @print_header(ptr noundef %0, ptr noundef %1, i64 noundef %2, ptr noundef %3, i64 noundef %4) #0 {
  %6 = alloca ptr, align 8
  %7 = alloca ptr, align 8
  %8 = alloca i64, align 8
  %9 = alloca ptr, align 8
  %10 = alloca i64, align 8
  store ptr %0, ptr %6, align 8, !tbaa !12
  store ptr %1, ptr %7, align 8, !tbaa !15
  store i64 %2, ptr %8, align 8, !tbaa !38
  store ptr %3, ptr %9, align 8, !tbaa !15
  store i64 %4, ptr %10, align 8, !tbaa !38
  %11 = load ptr, ptr %7, align 8, !tbaa !15
  %12 = load i64, ptr %8, align 8, !tbaa !38
  %13 = load ptr, ptr %6, align 8, !tbaa !12
  %14 = call i64 @fwrite(ptr noundef %11, i64 noundef 1, i64 noundef %12, ptr noundef %13)
  %15 = load ptr, ptr %6, align 8, !tbaa !12
  %16 = call i32 (ptr, ptr, ...) @fprintf(ptr noundef %15, ptr noundef @.str.17) #10
  %17 = load ptr, ptr %9, align 8, !tbaa !15
  %18 = load i64, ptr %10, align 8, !tbaa !38
  %19 = load ptr, ptr %6, align 8, !tbaa !12
  %20 = call i64 @fwrite(ptr noundef %17, i64 noundef 1, i64 noundef %18, ptr noundef %19)
  %21 = load ptr, ptr %6, align 8, !tbaa !12
  %22 = call i32 (ptr, ptr, ...) @fprintf(ptr noundef %21, ptr noundef @.str.18) #10
  ret void
}

; Function Attrs: nounwind uwtable
define internal void @print_headers(ptr noundef %0, ptr noundef %1, i64 noundef %2) #0 {
  %4 = alloca ptr, align 8
  %5 = alloca ptr, align 8
  %6 = alloca i64, align 8
  %7 = alloca i64, align 8
  store ptr %0, ptr %4, align 8, !tbaa !12
  store ptr %1, ptr %5, align 8, !tbaa !29
  store i64 %2, ptr %6, align 8, !tbaa !38
  call void @llvm.lifetime.start.p0(i64 8, ptr %7) #10
  store i64 0, ptr %7, align 8, !tbaa !38
  br label %8

8:                                                ; preds = %34, %3
  %9 = load i64, ptr %7, align 8, !tbaa !38
  %10 = load i64, ptr %6, align 8, !tbaa !38
  %11 = icmp ult i64 %9, %10
  br i1 %11, label %12, label %37

12:                                               ; preds = %8
  %13 = load ptr, ptr %4, align 8, !tbaa !12
  %14 = load ptr, ptr %5, align 8, !tbaa !29
  %15 = load i64, ptr %7, align 8, !tbaa !38
  %16 = getelementptr inbounds nuw %struct.nghttp2_nv, ptr %14, i64 %15
  %17 = getelementptr inbounds nuw %struct.nghttp2_nv, ptr %16, i32 0, i32 0
  %18 = load ptr, ptr %17, align 8, !tbaa !57
  %19 = load ptr, ptr %5, align 8, !tbaa !29
  %20 = load i64, ptr %7, align 8, !tbaa !38
  %21 = getelementptr inbounds nuw %struct.nghttp2_nv, ptr %19, i64 %20
  %22 = getelementptr inbounds nuw %struct.nghttp2_nv, ptr %21, i32 0, i32 2
  %23 = load i64, ptr %22, align 8, !tbaa !60
  %24 = load ptr, ptr %5, align 8, !tbaa !29
  %25 = load i64, ptr %7, align 8, !tbaa !38
  %26 = getelementptr inbounds nuw %struct.nghttp2_nv, ptr %24, i64 %25
  %27 = getelementptr inbounds nuw %struct.nghttp2_nv, ptr %26, i32 0, i32 1
  %28 = load ptr, ptr %27, align 8, !tbaa !59
  %29 = load ptr, ptr %5, align 8, !tbaa !29
  %30 = load i64, ptr %7, align 8, !tbaa !38
  %31 = getelementptr inbounds nuw %struct.nghttp2_nv, ptr %29, i64 %30
  %32 = getelementptr inbounds nuw %struct.nghttp2_nv, ptr %31, i32 0, i32 3
  %33 = load i64, ptr %32, align 8, !tbaa !61
  call void @print_header(ptr noundef %13, ptr noundef %18, i64 noundef %23, ptr noundef %28, i64 noundef %33)
  br label %34

34:                                               ; preds = %12
  %35 = load i64, ptr %7, align 8, !tbaa !38
  %36 = add i64 %35, 1
  store i64 %36, ptr %7, align 8, !tbaa !38
  br label %8, !llvm.loop !64

37:                                               ; preds = %8
  %38 = load ptr, ptr %4, align 8, !tbaa !12
  %39 = call i32 (ptr, ptr, ...) @fprintf(ptr noundef %38, ptr noundef @.str.18) #10
  call void @llvm.lifetime.end.p0(i64 8, ptr %7) #10
  ret void
}

; Function Attrs: nounwind uwtable
define internal void @submit_request(ptr noundef %0) #0 {
  %2 = alloca ptr, align 8
  %3 = alloca i32, align 4
  %4 = alloca ptr, align 8
  %5 = alloca ptr, align 8
  %6 = alloca ptr, align 8
  %7 = alloca [4 x %struct.nghttp2_nv], align 16
  store ptr %0, ptr %2, align 8, !tbaa !29
  call void @llvm.lifetime.start.p0(i64 4, ptr %3) #10
  call void @llvm.lifetime.start.p0(i64 8, ptr %4) #10
  %8 = load ptr, ptr %2, align 8, !tbaa !29
  %9 = getelementptr inbounds nuw %struct.http2_session_data, ptr %8, i32 0, i32 3
  %10 = load ptr, ptr %9, align 8, !tbaa !30
  store ptr %10, ptr %4, align 8, !tbaa !29
  call void @llvm.lifetime.start.p0(i64 8, ptr %5) #10
  %11 = load ptr, ptr %4, align 8, !tbaa !29
  %12 = getelementptr inbounds nuw %struct.http2_stream_data, ptr %11, i32 0, i32 0
  %13 = load ptr, ptr %12, align 8, !tbaa !40
  store ptr %13, ptr %5, align 8, !tbaa !15
  call void @llvm.lifetime.start.p0(i64 8, ptr %6) #10
  %14 = load ptr, ptr %4, align 8, !tbaa !29
  %15 = getelementptr inbounds nuw %struct.http2_stream_data, ptr %14, i32 0, i32 1
  %16 = load ptr, ptr %15, align 8, !tbaa !42
  store ptr %16, ptr %6, align 8, !tbaa !36
  call void @llvm.lifetime.start.p0(i64 160, ptr %7) #10
  %17 = getelementptr inbounds nuw %struct.nghttp2_nv, ptr %7, i32 0, i32 0
  store ptr @.str.21, ptr %17, align 8, !tbaa !57
  %18 = getelementptr inbounds nuw %struct.nghttp2_nv, ptr %7, i32 0, i32 1
  store ptr @.str.22, ptr %18, align 8, !tbaa !59
  %19 = getelementptr inbounds nuw %struct.nghttp2_nv, ptr %7, i32 0, i32 2
  store i64 7, ptr %19, align 8, !tbaa !60
  %20 = getelementptr inbounds nuw %struct.nghttp2_nv, ptr %7, i32 0, i32 3
  store i64 3, ptr %20, align 8, !tbaa !61
  %21 = getelementptr inbounds nuw %struct.nghttp2_nv, ptr %7, i32 0, i32 4
  store i8 0, ptr %21, align 8, !tbaa !62
  %22 = getelementptr i8, ptr %7, i64 33
  call void @llvm.memset.p0.i64(ptr align 1 %22, i8 0, i64 7, i1 false)
  %23 = getelementptr inbounds %struct.nghttp2_nv, ptr %7, i64 1
  %24 = getelementptr inbounds nuw %struct.nghttp2_nv, ptr %23, i32 0, i32 0
  store ptr @.str.23, ptr %24, align 8, !tbaa !57
  %25 = getelementptr inbounds nuw %struct.nghttp2_nv, ptr %23, i32 0, i32 1
  %26 = load ptr, ptr %5, align 8, !tbaa !15
  %27 = load ptr, ptr %6, align 8, !tbaa !36
  %28 = getelementptr inbounds nuw %struct.urlparse_url, ptr %27, i32 0, i32 2
  %29 = getelementptr inbounds [7 x %struct.anon], ptr %28, i64 0, i64 0
  %30 = getelementptr inbounds nuw %struct.anon, ptr %29, i32 0, i32 0
  %31 = load i16, ptr %30, align 2, !tbaa !17
  %32 = zext i16 %31 to i64
  %33 = getelementptr inbounds nuw i8, ptr %26, i64 %32
  store ptr %33, ptr %25, align 8, !tbaa !59
  %34 = getelementptr inbounds nuw %struct.nghttp2_nv, ptr %23, i32 0, i32 2
  store i64 7, ptr %34, align 8, !tbaa !60
  %35 = getelementptr inbounds nuw %struct.nghttp2_nv, ptr %23, i32 0, i32 3
  %36 = load ptr, ptr %6, align 8, !tbaa !36
  %37 = getelementptr inbounds nuw %struct.urlparse_url, ptr %36, i32 0, i32 2
  %38 = getelementptr inbounds [7 x %struct.anon], ptr %37, i64 0, i64 0
  %39 = getelementptr inbounds nuw %struct.anon, ptr %38, i32 0, i32 1
  %40 = load i16, ptr %39, align 2, !tbaa !20
  %41 = zext i16 %40 to i64
  store i64 %41, ptr %35, align 8, !tbaa !61
  %42 = getelementptr inbounds nuw %struct.nghttp2_nv, ptr %23, i32 0, i32 4
  store i8 0, ptr %42, align 8, !tbaa !62
  %43 = getelementptr i8, ptr %23, i64 33
  call void @llvm.memset.p0.i64(ptr align 1 %43, i8 0, i64 7, i1 false)
  %44 = getelementptr inbounds %struct.nghttp2_nv, ptr %7, i64 2
  %45 = getelementptr inbounds nuw %struct.nghttp2_nv, ptr %44, i32 0, i32 0
  store ptr @.str.24, ptr %45, align 8, !tbaa !57
  %46 = getelementptr inbounds nuw %struct.nghttp2_nv, ptr %44, i32 0, i32 1
  %47 = load ptr, ptr %4, align 8, !tbaa !29
  %48 = getelementptr inbounds nuw %struct.http2_stream_data, ptr %47, i32 0, i32 2
  %49 = load ptr, ptr %48, align 8, !tbaa !45
  store ptr %49, ptr %46, align 8, !tbaa !59
  %50 = getelementptr inbounds nuw %struct.nghttp2_nv, ptr %44, i32 0, i32 2
  store i64 10, ptr %50, align 8, !tbaa !60
  %51 = getelementptr inbounds nuw %struct.nghttp2_nv, ptr %44, i32 0, i32 3
  %52 = load ptr, ptr %4, align 8, !tbaa !29
  %53 = getelementptr inbounds nuw %struct.http2_stream_data, ptr %52, i32 0, i32 4
  %54 = load i64, ptr %53, align 8, !tbaa !44
  store i64 %54, ptr %51, align 8, !tbaa !61
  %55 = getelementptr inbounds nuw %struct.nghttp2_nv, ptr %44, i32 0, i32 4
  store i8 0, ptr %55, align 8, !tbaa !62
  %56 = getelementptr i8, ptr %44, i64 33
  call void @llvm.memset.p0.i64(ptr align 1 %56, i8 0, i64 7, i1 false)
  %57 = getelementptr inbounds %struct.nghttp2_nv, ptr %7, i64 3
  %58 = getelementptr inbounds nuw %struct.nghttp2_nv, ptr %57, i32 0, i32 0
  store ptr @.str.25, ptr %58, align 8, !tbaa !57
  %59 = getelementptr inbounds nuw %struct.nghttp2_nv, ptr %57, i32 0, i32 1
  %60 = load ptr, ptr %4, align 8, !tbaa !29
  %61 = getelementptr inbounds nuw %struct.http2_stream_data, ptr %60, i32 0, i32 3
  %62 = load ptr, ptr %61, align 8, !tbaa !47
  store ptr %62, ptr %59, align 8, !tbaa !59
  %63 = getelementptr inbounds nuw %struct.nghttp2_nv, ptr %57, i32 0, i32 2
  store i64 5, ptr %63, align 8, !tbaa !60
  %64 = getelementptr inbounds nuw %struct.nghttp2_nv, ptr %57, i32 0, i32 3
  %65 = load ptr, ptr %4, align 8, !tbaa !29
  %66 = getelementptr inbounds nuw %struct.http2_stream_data, ptr %65, i32 0, i32 5
  %67 = load i64, ptr %66, align 8, !tbaa !46
  store i64 %67, ptr %64, align 8, !tbaa !61
  %68 = getelementptr inbounds nuw %struct.nghttp2_nv, ptr %57, i32 0, i32 4
  store i8 0, ptr %68, align 8, !tbaa !62
  %69 = getelementptr i8, ptr %57, i64 33
  call void @llvm.memset.p0.i64(ptr align 1 %69, i8 0, i64 7, i1 false)
  %70 = load ptr, ptr @stderr, align 8, !tbaa !12
  %71 = call i32 (ptr, ptr, ...) @fprintf(ptr noundef %70, ptr noundef @.str.26) #10
  %72 = load ptr, ptr @stderr, align 8, !tbaa !12
  %73 = getelementptr inbounds [4 x %struct.nghttp2_nv], ptr %7, i64 0, i64 0
  call void @print_headers(ptr noundef %72, ptr noundef %73, i64 noundef 4)
  %74 = load ptr, ptr %2, align 8, !tbaa !29
  %75 = getelementptr inbounds nuw %struct.http2_session_data, ptr %74, i32 0, i32 0
  %76 = load ptr, ptr %75, align 8, !tbaa !54
  %77 = getelementptr inbounds [4 x %struct.nghttp2_nv], ptr %7, i64 0, i64 0
  %78 = load ptr, ptr %4, align 8, !tbaa !29
  %79 = call i32 @nghttp2_submit_request2(ptr noundef %76, ptr noundef null, ptr noundef %77, i64 noundef 4, ptr noundef null, ptr noundef %78)
  store i32 %79, ptr %3, align 4, !tbaa !4
  %80 = load i32, ptr %3, align 4, !tbaa !4
  %81 = icmp slt i32 %80, 0
  br i1 %81, label %82, label %85

82:                                               ; preds = %1
  %83 = load i32, ptr %3, align 4, !tbaa !4
  %84 = call ptr @nghttp2_strerror(i32 noundef %83)
  call void (i32, ptr, ...) @errx(i32 noundef 1, ptr noundef @.str.27, ptr noundef %84) #13
  unreachable

85:                                               ; preds = %1
  %86 = load i32, ptr %3, align 4, !tbaa !4
  %87 = load ptr, ptr %4, align 8, !tbaa !29
  %88 = getelementptr inbounds nuw %struct.http2_stream_data, ptr %87, i32 0, i32 6
  store i32 %86, ptr %88, align 8, !tbaa !43
  call void @llvm.lifetime.end.p0(i64 160, ptr %7) #10
  call void @llvm.lifetime.end.p0(i64 8, ptr %6) #10
  call void @llvm.lifetime.end.p0(i64 8, ptr %5) #10
  call void @llvm.lifetime.end.p0(i64 8, ptr %4) #10
  call void @llvm.lifetime.end.p0(i64 4, ptr %3) #10
  ret void
}