; Function Attrs: cold nounwind uwtable
define internal fastcc void @submit_request(ptr noundef readonly captures(none) %0) unnamed_addr #13 {
  %2 = alloca [4 x %struct.nghttp2_nv], align 16
  %3 = getelementptr inbounds nuw i8, ptr %0, i64 24
  %4 = load ptr, ptr %3, align 8, !tbaa !35
  %5 = load ptr, ptr %4, align 8, !tbaa !23
  %6 = getelementptr inbounds nuw i8, ptr %4, i64 8
  %7 = load ptr, ptr %6, align 8, !tbaa !28
  call void @llvm.lifetime.start.p0(i64 160, ptr nonnull %2) #18
  store ptr @.str.21, ptr %2, align 16, !tbaa !41
  %8 = getelementptr inbounds nuw i8, ptr %2, i64 8
  store ptr @.str.22, ptr %8, align 8, !tbaa !43
  %9 = getelementptr inbounds nuw i8, ptr %2, i64 16
  store i64 7, ptr %9, align 16, !tbaa !44
  %10 = getelementptr inbounds nuw i8, ptr %2, i64 24
  store i64 3, ptr %10, align 8, !tbaa !45
  %11 = getelementptr inbounds nuw i8, ptr %2, i64 32
  %12 = getelementptr inbounds nuw i8, ptr %2, i64 40
  store i64 0, ptr %11, align 16
  store ptr @.str.23, ptr %12, align 8, !tbaa !41
  %13 = getelementptr inbounds nuw i8, ptr %2, i64 48
  %14 = getelementptr inbounds nuw i8, ptr %7, i64 4
  %15 = load i16, ptr %14, align 2, !tbaa !12
  %16 = zext i16 %15 to i64
  %17 = getelementptr inbounds nuw i8, ptr %5, i64 %16
  store ptr %17, ptr %13, align 16, !tbaa !43
  %18 = getelementptr inbounds nuw i8, ptr %2, i64 56
  store i64 7, ptr %18, align 8, !tbaa !44
  %19 = getelementptr inbounds nuw i8, ptr %2, i64 64
  %20 = getelementptr inbounds nuw i8, ptr %7, i64 6
  %21 = load i16, ptr %20, align 2, !tbaa !15
  %22 = zext i16 %21 to i64
  store i64 %22, ptr %19, align 16, !tbaa !45
  %23 = getelementptr inbounds nuw i8, ptr %2, i64 72
  %24 = getelementptr inbounds nuw i8, ptr %2, i64 80
  store i64 0, ptr %23, align 8
  store ptr @.str.24, ptr %24, align 16, !tbaa !41
  %25 = getelementptr inbounds nuw i8, ptr %2, i64 88
  %26 = getelementptr inbounds nuw i8, ptr %4, i64 16
  %27 = load ptr, ptr %26, align 8, !tbaa !31
  store ptr %27, ptr %25, align 8, !tbaa !43
  %28 = getelementptr inbounds nuw i8, ptr %2, i64 96
  store i64 10, ptr %28, align 16, !tbaa !44
  %29 = getelementptr inbounds nuw i8, ptr %2, i64 104
  %30 = getelementptr inbounds nuw i8, ptr %4, i64 32
  %31 = load i64, ptr %30, align 8, !tbaa !30
  store i64 %31, ptr %29, align 8, !tbaa !45
  %32 = getelementptr inbounds nuw i8, ptr %2, i64 112
  %33 = getelementptr inbounds nuw i8, ptr %2, i64 120
  store i64 0, ptr %32, align 16
  store ptr @.str.25, ptr %33, align 8, !tbaa !41
  %34 = getelementptr inbounds nuw i8, ptr %2, i64 128
  %35 = getelementptr inbounds nuw i8, ptr %4, i64 24
  %36 = load ptr, ptr %35, align 8, !tbaa !34
  store ptr %36, ptr %34, align 16, !tbaa !43
  %37 = getelementptr inbounds nuw i8, ptr %2, i64 136
  store i64 5, ptr %37, align 8, !tbaa !44
  %38 = getelementptr inbounds nuw i8, ptr %2, i64 144
  %39 = getelementptr inbounds nuw i8, ptr %4, i64 40
  %40 = load i64, ptr %39, align 8, !tbaa !33
  store i64 %40, ptr %38, align 16, !tbaa !45
  %41 = getelementptr inbounds nuw i8, ptr %2, i64 152
  store i64 0, ptr %41, align 8
  %42 = load ptr, ptr @stderr, align 8, !tbaa !4
  %43 = tail call i64 @fwrite(ptr nonnull @.str.26, i64 17, i64 1, ptr %42) #19
  %44 = load ptr, ptr @stderr, align 8, !tbaa !4
  br label %45

45:                                               ; preds = %45, %1
  %.012.i = phi i64 [ 0, %1 ], [ %57, %45 ]
  %46 = getelementptr inbounds nuw %struct.nghttp2_nv, ptr %2, i64 %.012.i
  %47 = load ptr, ptr %46, align 8, !tbaa !41
  %48 = getelementptr inbounds nuw i8, ptr %46, i64 16
  %49 = load i64, ptr %48, align 8, !tbaa !44
  %50 = getelementptr inbounds nuw i8, ptr %46, i64 8
  %51 = load ptr, ptr %50, align 8, !tbaa !43
  %52 = getelementptr inbounds nuw i8, ptr %46, i64 24
  %53 = load i64, ptr %52, align 8, !tbaa !45
  %54 = tail call i64 @fwrite(ptr noundef %47, i64 noundef 1, i64 noundef %49, ptr noundef %44) #19
  %55 = tail call i64 @fwrite(ptr nonnull @.str.17, i64 2, i64 1, ptr %44) #19
  %56 = tail call i64 @fwrite(ptr noundef %51, i64 noundef 1, i64 noundef %53, ptr noundef %44) #19
  %fputc.i.i = tail call i32 @fputc(i32 10, ptr %44)
  %57 = add nuw nsw i64 %.012.i, 1
  %exitcond.not.i = icmp eq i64 %57, 4
  br i1 %exitcond.not.i, label %print_headers.exit, label %45, !llvm.loop !46

print_headers.exit:                               ; preds = %45
  %fputc.i = tail call i32 @fputc(i32 10, ptr %44)
  %58 = load ptr, ptr %0, align 8, !tbaa !37
  %59 = call i32 @nghttp2_submit_request2(ptr noundef %58, ptr noundef null, ptr noundef nonnull %2, i64 noundef 4, ptr noundef null, ptr noundef nonnull %4) #18
  %60 = icmp slt i32 %59, 0
  br i1 %60, label %61, label %63

61:                                               ; preds = %print_headers.exit
  %62 = call ptr @nghttp2_strerror(i32 noundef %59) #18
  call void (i32, ptr, ...) @errx(i32 noundef 1, ptr noundef nonnull @.str.27, ptr noundef %62) #22
  unreachable

63:                                               ; preds = %print_headers.exit
  %64 = getelementptr inbounds nuw i8, ptr %4, i64 48
  store i32 %59, ptr %64, align 8, !tbaa !29
  call void @llvm.lifetime.end.p0(i64 160, ptr nonnull %2) #18
  ret void
}